; Function Attrs: mustprogress uwtable
define noundef zeroext i8 @_ZN6node_t13first_byte_atEm(ptr noundef nonnull readonly align 8 captures(none) dereferenceable(8) %0, i64 noundef %1) local_unnamed_addr #7 align 2 {
  %3 = load ptr, ptr %0, align 8, !tbaa !3
  %4 = getelementptr inbounds nuw i8, ptr %3, i64 8
  %.0.copyload.i = load i32, ptr %4, align 1
  %5 = zext i32 %.0.copyload.i to i64
  %.not = icmp ult i64 %1, %5
  br i1 %.not, label %11, label %6, !prof !9

6:                                                ; preds = %2
  %7 = load ptr, ptr @stderr, align 8, !tbaa !10
  %8 = tail call i32 (ptr, ptr, ...) @fprintf(ptr noundef %7, ptr noundef nonnull @.str, ptr noundef nonnull @.str.1, ptr noundef nonnull @.str.2, i32 noundef 75) #23
  %9 = load ptr, ptr @stderr, align 8, !tbaa !10
  %10 = tail call i32 @fflush(ptr noundef %9)
  tail call void @_ZN3zmq9zmq_abortEPKc(ptr noundef nonnull @.str.1)
  %.pre = load ptr, ptr %0, align 8, !tbaa !3
  br label %11

11:                                               ; preds = %2, %6
  %12 = phi ptr [ %3, %2 ], [ %.pre, %6 ]
  %13 = getelementptr inbounds nuw i8, ptr %12, i64 12
  %14 = getelementptr inbounds nuw i8, ptr %12, i64 4
  %.0.copyload.i.i = load i32, ptr %14, align 1
  %15 = zext i32 %.0.copyload.i.i to i64
  %16 = getelementptr inbounds nuw i8, ptr %13, i64 %15
  %17 = getelementptr inbounds nuw i8, ptr %16, i64 %1
  %18 = load i8, ptr %17, align 1, !tbaa !12
  ret i8 %18
}